target datalayout = "e-m:e-p270:32:32-p271:32:32-p272:64:64-i64:64-i128:128-f80:128-n8:16:32:64-S128"
target triple = "x86_64-pc-linux-gnu"

%struct.expert_field = type { i32, i32 }

@hf_pcep_obj_pce_id_ipv4 = internal global i32 0, align 4
@hf_pcep_obj_pce_id_ipv6 = internal global i32 0, align 4
@ei_pcep_subobject_bad_length = internal global %struct.expert_field zeroinitializer, align 4
@ei_pcep_non_defined_subobject = internal global %struct.expert_field zeroinitializer, align 4
@.str.1148 = private unnamed_addr constant [25 x i8] c"UNKNOWN Type Object (%u)\00", align 1
@.str.1394 = private unnamed_addr constant [47 x i8] c"Bad IPv4 PCE-ID object length %u, should be %u\00", align 1
@.str.1395 = private unnamed_addr constant [47 x i8] c"Bad IPv6 PCE-ID object length %u, should be %u\00", align 1

; Function Attrs: null_pointer_is_valid sspstrong uwtable
define internal void @dissect_pcep_obj_pce_id(ptr noundef %0, ptr noundef %1, ptr noundef %2, i32 noundef %3, i32 noundef %4, i32 noundef %5, i32 noundef %6) #0 {
  %8 = alloca ptr, align 8
  %9 = alloca ptr, align 8
  %10 = alloca ptr, align 8
  %11 = alloca i32, align 4
  %12 = alloca i32, align 4
  %13 = alloca i32, align 4
  %14 = alloca i32, align 4
  store ptr %0, ptr %8, align 8
  store ptr %1, ptr %9, align 8
  store ptr %2, ptr %10, align 8
  store i32 %3, ptr %11, align 4
  store i32 %4, ptr %12, align 4
  store i32 %5, ptr %13, align 4
  store i32 %6, ptr %14, align 4
  %15 = load i32, ptr %14, align 4
  switch i32 %15, label %50 [
    i32 1, label %16
    i32 2, label %33
  ]

16:                                               ; preds = %7
  %17 = load i32, ptr %12, align 4
  %18 = icmp ne i32 %17, 8
  br i1 %18, label %19, label %27

19:                                               ; preds = %16
  %20 = load ptr, ptr %8, align 8
  %21 = load ptr, ptr %9, align 8
  %22 = load ptr, ptr %10, align 8
  %23 = load i32, ptr %11, align 4
  %24 = load i32, ptr %12, align 4
  %25 = load i32, ptr %12, align 4
  %26 = call ptr (ptr, ptr, ptr, ptr, i32, i32, ptr, ...) @proto_tree_add_expert_format(ptr noundef %20, ptr noundef %21, ptr noundef @ei_pcep_subobject_bad_length, ptr noundef %22, i32 noundef %23, i32 noundef %24, ptr noundef @.str.1394, i32 noundef %25, i32 noundef 8)
  br label %59

27:                                               ; preds = %16
  %28 = load ptr, ptr %8, align 8
  %29 = load i32, ptr @hf_pcep_obj_pce_id_ipv4, align 4
  %30 = load ptr, ptr %10, align 8
  %31 = load i32, ptr %11, align 4
  %32 = call ptr @proto_tree_add_item(ptr noundef %28, i32 noundef %29, ptr noundef %30, i32 noundef %31, i32 noundef 4, i32 noundef 0)
  br label %59

33:                                               ; preds = %7
  %34 = load i32, ptr %12, align 4
  %35 = icmp ne i32 %34, 20
  br i1 %35, label %36, label %44

36:                                               ; preds = %33
  %37 = load ptr, ptr %8, align 8
  %38 = load ptr, ptr %9, align 8
  %39 = load ptr, ptr %10, align 8
  %40 = load i32, ptr %11, align 4
  %41 = load i32, ptr %12, align 4
  %42 = load i32, ptr %12, align 4
  %43 = call ptr (ptr, ptr, ptr, ptr, i32, i32, ptr, ...) @proto_tree_add_expert_format(ptr noundef %37, ptr noundef %38, ptr noundef @ei_pcep_subobject_bad_length, ptr noundef %39, i32 noundef %40, i32 noundef %41, ptr noundef @.str.1395, i32 noundef %42, i32 noundef 20)
  br label %59

44:                                               ; preds = %33
  %45 = load ptr, ptr %8, align 8
  %46 = load i32, ptr @hf_pcep_obj_pce_id_ipv6, align 4
  %47 = load ptr, ptr %10, align 8
  %48 = load i32, ptr %11, align 4
  %49 = call ptr @proto_tree_add_item(ptr noundef %45, i32 noundef %46, ptr noundef %47, i32 noundef %48, i32 noundef 16, i32 noundef 0)
  br label %59

50:                                               ; preds = %7
  %51 = load ptr, ptr %8, align 8
  %52 = load ptr, ptr %9, align 8
  %53 = load ptr, ptr %10, align 8
  %54 = load i32, ptr %11, align 4
  %55 = load i32, ptr %12, align 4
  %56 = sub i32 %55, 4
  %57 = load i32, ptr %14, align 4
  %58 = call ptr (ptr, ptr, ptr, ptr, i32, i32, ptr, ...) @proto_tree_add_expert_format(ptr noundef %51, ptr noundef %52, ptr noundef @ei_pcep_non_defined_subobject, ptr noundef %53, i32 noundef %54, i32 noundef %56, ptr noundef @.str.1148, i32 noundef %57)
  br label %59

59:                                               ; preds = %19, %36, %50, %44, %27
  ret void
}